; Function Attrs: mustprogress uwtable
define noundef i32 @_ZN5ezSAT6vec_eqERKSt6vectorIiSaIiEES4_(ptr noundef nonnull align 8 dereferenceable(284) %0, ptr noundef nonnull readonly align 8 captures(none) dereferenceable(24) %1, ptr noundef nonnull readonly align 8 captures(none) dereferenceable(24) %2) local_unnamed_addr #0 align 2 personality ptr @__gxx_personality_v0 {
  %4 = alloca %"class.std::vector.14", align 8
  call void @llvm.lifetime.start.p0(i64 24, ptr nonnull %4) #30
  call void @_ZN5ezSAT7vec_iffERKSt6vectorIiSaIiEES4_(ptr dead_on_unwind nonnull writable sret(%"class.std::vector.14") align 8 %4, ptr noundef nonnull align 8 dereferenceable(284) %0, ptr noundef nonnull align 8 dereferenceable(24) %1, ptr noundef nonnull align 8 dereferenceable(24) %2)
  %5 = invoke noundef i32 @_ZN5ezSAT10expressionENS_4OpIdERKSt6vectorIiSaIiEE(ptr noundef nonnull align 8 dereferenceable(284) %0, i32 noundef 1, ptr noundef nonnull readonly align 8 dereferenceable(24) %4)
          to label %_ZN5ezSAT14vec_reduce_andERKSt6vectorIiSaIiEE.exit unwind label %13

_ZN5ezSAT14vec_reduce_andERKSt6vectorIiSaIiEE.exit: ; preds = %3
  %6 = load ptr, ptr %4, align 8, !tbaa !69
  %.not.i.i.i = icmp eq ptr %6, null
  br i1 %.not.i.i.i, label %_ZNSt6vectorIiSaIiEED2Ev.exit, label %7

7:                                                ; preds = %_ZN5ezSAT14vec_reduce_andERKSt6vectorIiSaIiEE.exit
  %8 = getelementptr inbounds nuw i8, ptr %4, i64 16
  %9 = load ptr, ptr %8, align 8, !tbaa !70
  %10 = ptrtoint ptr %9 to i64
  %11 = ptrtoint ptr %6 to i64
  %12 = sub i64 %10, %11
  tail call void @_ZdlPvm(ptr noundef nonnull %6, i64 noundef %12) #31
  br label %_ZNSt6vectorIiSaIiEED2Ev.exit

_ZNSt6vectorIiSaIiEED2Ev.exit:                    ; preds = %_ZN5ezSAT14vec_reduce_andERKSt6vectorIiSaIiEE.exit, %7
  call void @llvm.lifetime.end.p0(i64 24, ptr nonnull %4) #30
  ret i32 %5

13:                                               ; preds = %3
  %14 = landingpad { ptr, i32 }
          cleanup
  %15 = load ptr, ptr %4, align 8, !tbaa !69
  %.not.i.i.i4 = icmp eq ptr %15, null
  br i1 %.not.i.i.i4, label %_ZNSt6vectorIiSaIiEED2Ev.exit5, label %16

16:                                               ; preds = %13
  %17 = getelementptr inbounds nuw i8, ptr %4, i64 16
  %18 = load ptr, ptr %17, align 8, !tbaa !70
  %19 = ptrtoint ptr %18 to i64
  %20 = ptrtoint ptr %15 to i64
  %21 = sub i64 %19, %20
  tail call void @_ZdlPvm(ptr noundef nonnull %15, i64 noundef %21) #31
  br label %_ZNSt6vectorIiSaIiEED2Ev.exit5

_ZNSt6vectorIiSaIiEED2Ev.exit5:                   ; preds = %13, %16
  call void @llvm.lifetime.end.p0(i64 24, ptr nonnull %4) #30
  resume { ptr, i32 } %14
}